target datalayout = "e-m:e-p270:32:32-p271:32:32-p272:64:64-i64:64-i128:128-f80:128-n8:16:32:64-S128"
target triple = "x86_64-pc-linux-gnu"

@hf_rr_pkt_imm_ass_3_prm_rlc_mode = internal global i32 0, align 4
@hf_rr_pkt_imm_ass_3_prm_spare = internal global i32 0, align 4
@hf_rr_pkt_imm_ass_3_prm_dl_tfi = internal global i32 0, align 4
@hf_rr_pkt_imm_ass_3_prm_start_fn = internal global i32 0, align 4
@hf_rr_pkt_imm_ass_3_prm_mac_slot_alloc = internal global i32 0, align 4
@rr_pkt_imm_ass_3_prm_dl_tfi_crumbs = internal constant [3 x { i32, i8, [3 x i8] }] [{ i32, i8, [3 x i8] } { i32 0, i8 3, [3 x i8] zeroinitializer }, { i32, i8, [3 x i8] } { i32 12, i8 4, [3 x i8] zeroinitializer }, { i32, i8, [3 x i8] } zeroinitializer], align 16

; Function Attrs: null_pointer_is_valid sspstrong uwtable
define internal zeroext i16 @gmr1_ie_rr_pkt_imm_ass_3_prm(ptr noundef %0, ptr noundef %1, ptr noundef %2, i32 noundef %3, i32 noundef %4, ptr noundef %5, i32 noundef %6) #1 {
  %8 = alloca ptr, align 8
  %9 = alloca ptr, align 8
  %10 = alloca ptr, align 8
  %11 = alloca i32, align 4
  %12 = alloca i32, align 4
  %13 = alloca ptr, align 8
  %14 = alloca i32, align 4
  store ptr %0, ptr %8, align 8
  store ptr %1, ptr %9, align 8
  store ptr %2, ptr %10, align 8
  store i32 %3, ptr %11, align 4
  store i32 %4, ptr %12, align 4
  store ptr %5, ptr %13, align 8
  store i32 %6, ptr %14, align 4
  %15 = load ptr, ptr %9, align 8
  %16 = load i32, ptr @hf_rr_pkt_imm_ass_3_prm_rlc_mode, align 4
  %17 = load ptr, ptr %8, align 8
  %18 = load i32, ptr %11, align 4
  %19 = call ptr @proto_tree_add_item(ptr noundef %15, i32 noundef %16, ptr noundef %17, i32 noundef %18, i32 noundef 1, i32 noundef 0)
  %20 = load ptr, ptr %9, align 8
  %21 = load i32, ptr @hf_rr_pkt_imm_ass_3_prm_spare, align 4
  %22 = load ptr, ptr %8, align 8
  %23 = load i32, ptr %11, align 4
  %24 = call ptr @proto_tree_add_item(ptr noundef %20, i32 noundef %21, ptr noundef %22, i32 noundef %23, i32 noundef 1, i32 noundef 0)
  %25 = load ptr, ptr %9, align 8
  %26 = load i32, ptr @hf_rr_pkt_imm_ass_3_prm_dl_tfi, align 4
  %27 = load ptr, ptr %8, align 8
  %28 = load i32, ptr %11, align 4
  %29 = shl i32 %28, 3
  %30 = call ptr @proto_tree_add_split_bits_item_ret_val(ptr noundef %25, i32 noundef %26, ptr noundef %27, i32 noundef %29, ptr noundef @rr_pkt_imm_ass_3_prm_dl_tfi_crumbs, ptr noundef null)
  %31 = load ptr, ptr %9, align 8
  %32 = load i32, ptr @hf_rr_pkt_imm_ass_3_prm_start_fn, align 4
  %33 = load ptr, ptr %8, align 8
  %34 = load i32, ptr %11, align 4
  %35 = add i32 %34, 1
  %36 = call ptr @proto_tree_add_item(ptr noundef %31, i32 noundef %32, ptr noundef %33, i32 noundef %35, i32 noundef 1, i32 noundef 0)
  %37 = load ptr, ptr %9, align 8
  %38 = load i32, ptr @hf_rr_pkt_imm_ass_3_prm_mac_slot_alloc, align 4
  %39 = load ptr, ptr %8, align 8
  %40 = load i32, ptr %11, align 4
  %41 = add i32 %40, 2
  %42 = call ptr @proto_tree_add_item(ptr noundef %37, i32 noundef %38, ptr noundef %39, i32 noundef %41, i32 noundef 1, i32 noundef 0)
  ret i16 3
}