; Function Attrs: null_pointer_is_valid sspstrong uwtable
define internal noundef zeroext i16 @gmr1_ie_rr_pkt_imm_ass_3_prm(ptr noundef %0, ptr noundef %1, ptr readnone captures(none) %2, i32 noundef %3, i32 %4, ptr readnone captures(none) %5, i32 %6) #1 {
  %8 = load i32, ptr @hf_rr_pkt_imm_ass_3_prm_rlc_mode, align 4
  %9 = tail call ptr @proto_tree_add_item(ptr noundef %1, i32 noundef %8, ptr noundef %0, i32 noundef %3, i32 noundef 1, i32 noundef 0)
  %10 = load i32, ptr @hf_rr_pkt_imm_ass_3_prm_spare, align 4
  %11 = tail call ptr @proto_tree_add_item(ptr noundef %1, i32 noundef %10, ptr noundef %0, i32 noundef %3, i32 noundef 1, i32 noundef 0)
  %12 = load i32, ptr @hf_rr_pkt_imm_ass_3_prm_dl_tfi, align 4
  %13 = shl i32 %3, 3
  %14 = tail call ptr @proto_tree_add_split_bits_item_ret_val(ptr noundef %1, i32 noundef %12, ptr noundef %0, i32 noundef %13, ptr noundef nonnull @rr_pkt_imm_ass_3_prm_dl_tfi_crumbs, ptr noundef null)
  %15 = load i32, ptr @hf_rr_pkt_imm_ass_3_prm_start_fn, align 4
  %16 = add i32 %3, 1
  %17 = tail call ptr @proto_tree_add_item(ptr noundef %1, i32 noundef %15, ptr noundef %0, i32 noundef %16, i32 noundef 1, i32 noundef 0)
  %18 = load i32, ptr @hf_rr_pkt_imm_ass_3_prm_mac_slot_alloc, align 4
  %19 = add i32 %3, 2
  %20 = tail call ptr @proto_tree_add_item(ptr noundef %1, i32 noundef %18, ptr noundef %0, i32 noundef %19, i32 noundef 1, i32 noundef 0)
  ret i16 3
}